target datalayout = "e-m:e-p270:32:32-p271:32:32-p272:64:64-i64:64-i128:128-f80:128-n8:16:32:64-S128"
target triple = "x86_64-pc-linux-gnu"

%struct.Aig_Man_t_ = type { ptr, ptr, ptr, ptr, ptr, ptr, ptr, %struct.Aig_Obj_t_, i32, i32, i32, i32, i32, i32, [7 x i32], i32, ptr, i32, ptr, i32, ptr, i32, i32, i32, ptr, i32, i32, i32, i32, i32, ptr, ptr, i32, ptr, ptr, i32, ptr, ptr, i32, i32, i32, ptr, ptr, ptr, ptr, ptr, ptr, ptr, ptr, ptr, ptr, ptr, ptr, ptr, ptr, i32, ptr, ptr, ptr, ptr, i32, i64, i64, i64, ptr, ptr }
%struct.Aig_Obj_t_ = type { %union.anon, ptr, ptr, i64, i32, i32, %union.anon.0 }
%union.anon = type { ptr }
%union.anon.0 = type { ptr }
%struct.Ssw_Man_t_ = type { ptr, i32, ptr, ptr, ptr, ptr, i32, ptr, ptr, ptr, i32, i32, i32, i32, i32, i32, i32, i32, i32, i32, i32, ptr, i32, ptr, i32, i32, i32, i32, ptr, ptr, ptr, i32, ptr, i32, i32, ptr, ptr, ptr, i32, ptr, i32, i32, i32, i32, i32, i32, i32, i32, i32, i32, i32, i32, i32, i32, i32, i32, i32, i32, i32, i32, i32, i32, i64, i64, i64, i64, i64, i64, i64, i64, i64, i64 }

; Function Attrs: nounwind uwtable
define internal i32 @Aig_IsComplement(ptr noundef %0) #0 {
  %2 = alloca ptr, align 8
  store ptr %0, ptr %2, align 8
  %3 = load ptr, ptr %2, align 8
  %4 = ptrtoint ptr %3 to i64
  %5 = and i64 %4, 1
  %6 = trunc i64 %5 to i32
  ret i32 %6
}

; Function Attrs: nounwind uwtable
define internal ptr @Aig_Regular(ptr noundef %0) #0 {
  %2 = alloca ptr, align 8
  store ptr %0, ptr %2, align 8
  %3 = load ptr, ptr %2, align 8
  %4 = ptrtoint ptr %3 to i64
  %5 = and i64 %4, -2
  %6 = inttoptr i64 %5 to ptr
  ret ptr %6
}

; Function Attrs: nounwind uwtable
define internal i32 @Aig_ObjPhaseReal(ptr noundef %0) #0 {
  %2 = alloca ptr, align 8
  store ptr %0, ptr %2, align 8
  %3 = load ptr, ptr %2, align 8
  %4 = icmp ne ptr %3, null
  br i1 %4, label %5, label %16

5:                                                ; preds = %1
  %6 = load ptr, ptr %2, align 8
  %7 = call ptr @Aig_Regular(ptr noundef %6)
  %8 = getelementptr inbounds %struct.Aig_Obj_t_, ptr %7, i32 0, i32 3
  %9 = load i64, ptr %8, align 8
  %10 = lshr i64 %9, 3
  %11 = and i64 %10, 1
  %12 = trunc i64 %11 to i32
  %13 = load ptr, ptr %2, align 8
  %14 = call i32 @Aig_IsComplement(ptr noundef %13)
  %15 = xor i32 %12, %14
  br label %17

16:                                               ; preds = %1
  br label %17

17:                                               ; preds = %16, %5
  %18 = phi i32 [ %15, %5 ], [ 1, %16 ]
  ret i32 %18
}

; Function Attrs: nounwind uwtable
define internal void @Ssw_ObjSetFrame(ptr noundef %0, ptr noundef %1, i32 noundef %2, ptr noundef %3) #0 {
  %5 = alloca ptr, align 8
  %6 = alloca ptr, align 8
  %7 = alloca i32, align 4
  %8 = alloca ptr, align 8
  store ptr %0, ptr %5, align 8
  store ptr %1, ptr %6, align 8
  store i32 %2, ptr %7, align 4
  store ptr %3, ptr %8, align 8
  %9 = load ptr, ptr %8, align 8
  %10 = load ptr, ptr %5, align 8
  %11 = getelementptr inbounds %struct.Ssw_Man_t_, ptr %10, i32 0, i32 4
  %12 = load ptr, ptr %11, align 8
  %13 = load ptr, ptr %5, align 8
  %14 = getelementptr inbounds %struct.Ssw_Man_t_, ptr %13, i32 0, i32 1
  %15 = load i32, ptr %14, align 8
  %16 = load ptr, ptr %6, align 8
  %17 = getelementptr inbounds %struct.Aig_Obj_t_, ptr %16, i32 0, i32 5
  %18 = load i32, ptr %17, align 4
  %19 = mul nsw i32 %15, %18
  %20 = load i32, ptr %7, align 4
  %21 = add nsw i32 %19, %20
  %22 = sext i32 %21 to i64
  %23 = getelementptr inbounds ptr, ptr %12, i64 %22
  store ptr %9, ptr %23, align 8
  ret void
}

; Function Attrs: nounwind uwtable
define internal ptr @Aig_NotCond(ptr noundef %0, i32 noundef %1) #0 {
  %3 = alloca ptr, align 8
  %4 = alloca i32, align 4
  store ptr %0, ptr %3, align 8
  store i32 %1, ptr %4, align 4
  %5 = load ptr, ptr %3, align 8
  %6 = ptrtoint ptr %5 to i64
  %7 = load i32, ptr %4, align 4
  %8 = sext i32 %7 to i64
  %9 = xor i64 %6, %8
  %10 = inttoptr i64 %9 to ptr
  ret ptr %10
}

; Function Attrs: nounwind uwtable
define internal ptr @Aig_Not(ptr noundef %0) #0 {
  %2 = alloca ptr, align 8
  store ptr %0, ptr %2, align 8
  %3 = load ptr, ptr %2, align 8
  %4 = ptrtoint ptr %3 to i64
  %5 = xor i64 %4, 1
  %6 = inttoptr i64 %5 to ptr
  ret ptr %6
}

; Function Attrs: nounwind uwtable
define internal ptr @Ssw_ObjFrame(ptr noundef %0, ptr noundef %1, i32 noundef %2) #0 {
  %4 = alloca ptr, align 8
  %5 = alloca ptr, align 8
  %6 = alloca i32, align 4
  store ptr %0, ptr %4, align 8
  store ptr %1, ptr %5, align 8
  store i32 %2, ptr %6, align 4
  %7 = load ptr, ptr %4, align 8
  %8 = getelementptr inbounds %struct.Ssw_Man_t_, ptr %7, i32 0, i32 4
  %9 = load ptr, ptr %8, align 8
  %10 = load ptr, ptr %4, align 8
  %11 = getelementptr inbounds %struct.Ssw_Man_t_, ptr %10, i32 0, i32 1
  %12 = load i32, ptr %11, align 8
  %13 = load ptr, ptr %5, align 8
  %14 = getelementptr inbounds %struct.Aig_Obj_t_, ptr %13, i32 0, i32 5
  %15 = load i32, ptr %14, align 4
  %16 = mul nsw i32 %12, %15
  %17 = load i32, ptr %6, align 4
  %18 = add nsw i32 %16, %17
  %19 = sext i32 %18 to i64
  %20 = getelementptr inbounds ptr, ptr %9, i64 %19
  %21 = load ptr, ptr %20, align 8
  ret ptr %21
}

; Function Attrs: nounwind uwtable
define internal ptr @Aig_ObjRepr(ptr noundef %0, ptr noundef %1) #0 {
  %3 = alloca ptr, align 8
  %4 = alloca ptr, align 8
  store ptr %0, ptr %3, align 8
  store ptr %1, ptr %4, align 8
  %5 = load ptr, ptr %3, align 8
  %6 = getelementptr inbounds %struct.Aig_Man_t_, ptr %5, i32 0, i32 31
  %7 = load ptr, ptr %6, align 8
  %8 = icmp ne ptr %7, null
  br i1 %8, label %9, label %19

9:                                                ; preds = %2
  %10 = load ptr, ptr %3, align 8
  %11 = getelementptr inbounds %struct.Aig_Man_t_, ptr %10, i32 0, i32 31
  %12 = load ptr, ptr %11, align 8
  %13 = load ptr, ptr %4, align 8
  %14 = getelementptr inbounds %struct.Aig_Obj_t_, ptr %13, i32 0, i32 5
  %15 = load i32, ptr %14, align 4
  %16 = sext i32 %15 to i64
  %17 = getelementptr inbounds ptr, ptr %12, i64 %16
  %18 = load ptr, ptr %17, align 8
  br label %20

19:                                               ; preds = %2
  br label %20

20:                                               ; preds = %19, %9
  %21 = phi ptr [ %18, %9 ], [ null, %19 ]
  ret ptr %21
}

; Function Attrs: nounwind uwtable
define internal void @Ssw_FramesConstrainNode(ptr noundef %0, ptr noundef %1, ptr noundef %2, ptr noundef %3, i32 noundef %4, i32 noundef %5) #0 {
  %7 = alloca ptr, align 8
  %8 = alloca ptr, align 8
  %9 = alloca ptr, align 8
  %10 = alloca ptr, align 8
  %11 = alloca i32, align 4
  %12 = alloca i32, align 4
  %13 = alloca ptr, align 8
  %14 = alloca ptr, align 8
  %15 = alloca ptr, align 8
  %16 = alloca ptr, align 8
  %17 = alloca ptr, align 8
  store ptr %0, ptr %7, align 8
  store ptr %1, ptr %8, align 8
  store ptr %2, ptr %9, align 8
  store ptr %3, ptr %10, align 8
  store i32 %4, ptr %11, align 4
  store i32 %5, ptr %12, align 4
  %18 = load ptr, ptr %9, align 8
  %19 = load ptr, ptr %10, align 8
  %20 = call ptr @Aig_ObjRepr(ptr noundef %18, ptr noundef %19)
  store ptr %20, ptr %15, align 8
  %21 = load ptr, ptr %15, align 8
  %22 = icmp eq ptr %21, null
  br i1 %22, label %23, label %24

23:                                               ; preds = %6
  br label %107

24:                                               ; preds = %6
  %25 = load ptr, ptr %7, align 8
  %26 = getelementptr inbounds %struct.Ssw_Man_t_, ptr %25, i32 0, i32 40
  %27 = load i32, ptr %26, align 8
  %28 = add nsw i32 %27, 1
  store i32 %28, ptr %26, align 8
  %29 = load ptr, ptr %7, align 8
  %30 = load ptr, ptr %10, align 8
  %31 = load i32, ptr %11, align 4
  %32 = call ptr @Ssw_ObjFrame(ptr noundef %29, ptr noundef %30, i32 noundef %31)
  store ptr %32, ptr %13, align 8
  %33 = load ptr, ptr %7, align 8
  %34 = load ptr, ptr %15, align 8
  %35 = load i32, ptr %11, align 4
  %36 = call ptr @Ssw_ObjFrame(ptr noundef %33, ptr noundef %34, i32 noundef %35)
  store ptr %36, ptr %16, align 8
  %37 = load ptr, ptr %10, align 8
  %38 = getelementptr inbounds %struct.Aig_Obj_t_, ptr %37, i32 0, i32 3
  %39 = load i64, ptr %38, align 8
  %40 = lshr i64 %39, 3
  %41 = and i64 %40, 1
  %42 = trunc i64 %41 to i32
  %43 = load ptr, ptr %15, align 8
  %44 = getelementptr inbounds %struct.Aig_Obj_t_, ptr %43, i32 0, i32 3
  %45 = load i64, ptr %44, align 8
  %46 = lshr i64 %45, 3
  %47 = and i64 %46, 1
  %48 = trunc i64 %47 to i32
  %49 = icmp eq i32 %42, %48
  br i1 %49, label %50, label %56

50:                                               ; preds = %24
  %51 = load ptr, ptr %13, align 8
  %52 = load ptr, ptr %16, align 8
  %53 = icmp eq ptr %51, %52
  br i1 %53, label %54, label %55

54:                                               ; preds = %50
  br label %107

55:                                               ; preds = %50
  br label %63

56:                                               ; preds = %24
  %57 = load ptr, ptr %13, align 8
  %58 = load ptr, ptr %16, align 8
  %59 = call ptr @Aig_Not(ptr noundef %58)
  %60 = icmp eq ptr %57, %59
  br i1 %60, label %61, label %62

61:                                               ; preds = %56
  br label %107

62:                                               ; preds = %56
  br label %63

63:                                               ; preds = %62, %55
  %64 = load ptr, ptr %7, align 8
  %65 = getelementptr inbounds %struct.Ssw_Man_t_, ptr %64, i32 0, i32 41
  %66 = load i32, ptr %65, align 4
  %67 = add nsw i32 %66, 1
  store i32 %67, ptr %65, align 4
  %68 = load ptr, ptr %16, align 8
  %69 = load ptr, ptr %10, align 8
  %70 = getelementptr inbounds %struct.Aig_Obj_t_, ptr %69, i32 0, i32 3
  %71 = load i64, ptr %70, align 8
  %72 = lshr i64 %71, 3
  %73 = and i64 %72, 1
  %74 = trunc i64 %73 to i32
  %75 = load ptr, ptr %15, align 8
  %76 = getelementptr inbounds %struct.Aig_Obj_t_, ptr %75, i32 0, i32 3
  %77 = load i64, ptr %76, align 8
  %78 = lshr i64 %77, 3
  %79 = and i64 %78, 1
  %80 = trunc i64 %79 to i32
  %81 = xor i32 %74, %80
  %82 = call ptr @Aig_NotCond(ptr noundef %68, i32 noundef %81)
  store ptr %82, ptr %14, align 8
  %83 = load ptr, ptr %7, align 8
  %84 = load ptr, ptr %10, align 8
  %85 = load i32, ptr %11, align 4
  %86 = load ptr, ptr %14, align 8
  call void @Ssw_ObjSetFrame(ptr noundef %83, ptr noundef %84, i32 noundef %85, ptr noundef %86)
  %87 = load i32, ptr %12, align 4
  %88 = icmp ne i32 %87, 0
  br i1 %88, label %89, label %96

89:                                               ; preds = %63
  %90 = load ptr, ptr %8, align 8
  %91 = load ptr, ptr %14, align 8
  %92 = call ptr @Aig_ObjCreateCo(ptr noundef %90, ptr noundef %91)
  %93 = load ptr, ptr %8, align 8
  %94 = load ptr, ptr %13, align 8
  %95 = call ptr @Aig_ObjCreateCo(ptr noundef %93, ptr noundef %94)
  br label %107

96:                                               ; preds = %63
  %97 = load ptr, ptr %8, align 8
  %98 = load ptr, ptr %13, align 8
  %99 = load ptr, ptr %14, align 8
  %100 = call ptr @Aig_Exor(ptr noundef %97, ptr noundef %98, ptr noundef %99)
  store ptr %100, ptr %17, align 8
  %101 = load ptr, ptr %8, align 8
  %102 = load ptr, ptr %17, align 8
  %103 = load ptr, ptr %17, align 8
  %104 = call i32 @Aig_ObjPhaseReal(ptr noundef %103)
  %105 = call ptr @Aig_NotCond(ptr noundef %102, i32 noundef %104)
  %106 = call ptr @Aig_ObjCreateCo(ptr noundef %101, ptr noundef %105)
  br label %107

107:                                              ; preds = %96, %89, %61, %54, %23
  ret void
}