; Function Attrs: nounwind uwtable
define internal fastcc void @Ssw_FramesConstrainNode(ptr noundef captures(none) %0, ptr noundef %1, ptr readonly %.256.val, ptr noundef readonly captures(none) %2, i32 noundef %3, i32 noundef range(i32 0, 2) %4) unnamed_addr #2 {
  %.not.i = icmp eq ptr %.256.val, null
  br i1 %.not.i, label %Aig_ObjRepr.exit.thread, label %Aig_ObjRepr.exit

Aig_ObjRepr.exit:                                 ; preds = %5
  %6 = getelementptr i8, ptr %2, i64 36
  %7 = load i32, ptr %6, align 4
  %8 = sext i32 %7 to i64
  %9 = getelementptr inbounds ptr, ptr %.256.val, i64 %8
  %10 = load ptr, ptr %9, align 8
  %11 = icmp eq ptr %10, null
  br i1 %11, label %Aig_ObjRepr.exit.thread, label %12

12:                                               ; preds = %Aig_ObjRepr.exit
  %13 = getelementptr inbounds nuw i8, ptr %0, i64 256
  %14 = load i32, ptr %13, align 8
  %15 = add nsw i32 %14, 1
  store i32 %15, ptr %13, align 8
  %16 = getelementptr i8, ptr %0, i64 8
  %.val37 = load i32, ptr %16, align 8
  %17 = getelementptr i8, ptr %0, i64 32
  %.val38 = load ptr, ptr %17, align 8
  %.val39 = load i32, ptr %6, align 4
  %18 = mul nsw i32 %.val39, %.val37
  %19 = add nsw i32 %18, %3
  %20 = sext i32 %19 to i64
  %21 = getelementptr inbounds ptr, ptr %.val38, i64 %20
  %22 = load ptr, ptr %21, align 8
  %23 = getelementptr i8, ptr %10, i64 36
  %.val42 = load i32, ptr %23, align 4
  %24 = mul nsw i32 %.val42, %.val37
  %25 = add nsw i32 %24, %3
  %26 = sext i32 %25 to i64
  %27 = getelementptr inbounds ptr, ptr %.val38, i64 %26
  %28 = load ptr, ptr %27, align 8
  %29 = getelementptr inbounds nuw i8, ptr %2, i64 24
  %30 = load i64, ptr %29, align 8
  %31 = getelementptr inbounds nuw i8, ptr %10, i64 24
  %32 = load i64, ptr %31, align 8
  %33 = xor i64 %32, %30
  %34 = and i64 %33, 8
  %35 = icmp eq i64 %34, 0
  br i1 %35, label %36, label %38

36:                                               ; preds = %12
  %37 = icmp eq ptr %22, %28
  br i1 %37, label %Aig_ObjRepr.exit.thread, label %._crit_edge

._crit_edge:                                      ; preds = %36
  %.pre = ptrtoint ptr %28 to i64
  br label %43

38:                                               ; preds = %12
  %39 = ptrtoint ptr %28 to i64
  %40 = xor i64 %39, 1
  %41 = inttoptr i64 %40 to ptr
  %42 = icmp eq ptr %22, %41
  br i1 %42, label %Aig_ObjRepr.exit.thread, label %43

43:                                               ; preds = %._crit_edge, %38
  %.pre-phi = phi i64 [ %.pre, %._crit_edge ], [ %39, %38 ]
  %44 = getelementptr inbounds nuw i8, ptr %0, i64 260
  %45 = load i32, ptr %44, align 4
  %46 = add nsw i32 %45, 1
  store i32 %46, ptr %44, align 4
  %47 = load i64, ptr %29, align 8
  %48 = load i64, ptr %31, align 8
  %49 = xor i64 %48, %47
  %50 = lshr i64 %49, 3
  %51 = and i64 %50, 1
  %52 = xor i64 %51, %.pre-phi
  %53 = inttoptr i64 %52 to ptr
  %.val35 = load i32, ptr %6, align 4
  %54 = mul nsw i32 %.val35, %.val37
  %55 = add nsw i32 %54, %3
  %56 = sext i32 %55 to i64
  %57 = getelementptr inbounds ptr, ptr %.val38, i64 %56
  store ptr %53, ptr %57, align 8
  %.not = icmp eq i32 %4, 0
  br i1 %.not, label %60, label %58

58:                                               ; preds = %43
  %59 = tail call ptr @Aig_ObjCreateCo(ptr noundef %1, ptr noundef %53) #9
  br label %Aig_ObjRepr.exit.thread.sink.split

60:                                               ; preds = %43
  %61 = tail call ptr @Aig_Exor(ptr noundef %1, ptr noundef %22, ptr noundef %53) #9
  %.not.i43 = icmp eq ptr %61, null
  %.pre1 = ptrtoint ptr %61 to i64
  br i1 %.not.i43, label %Aig_ObjPhaseReal.exit, label %62

62:                                               ; preds = %60
  %63 = and i64 %.pre1, -2
  %64 = inttoptr i64 %63 to ptr
  %65 = getelementptr inbounds nuw i8, ptr %64, i64 24
  %66 = load i64, ptr %65, align 8
  %67 = trunc i64 %66 to i32
  %68 = lshr i32 %67, 3
  %69 = trunc i64 %.pre1 to i32
  %70 = xor i32 %68, %69
  %71 = and i32 %70, 1
  %72 = zext nneg i32 %71 to i64
  br label %Aig_ObjPhaseReal.exit

Aig_ObjPhaseReal.exit:                            ; preds = %60, %62
  %73 = phi i64 [ %72, %62 ], [ 1, %60 ]
  %74 = xor i64 %73, %.pre1
  %75 = inttoptr i64 %74 to ptr
  br label %Aig_ObjRepr.exit.thread.sink.split

Aig_ObjRepr.exit.thread.sink.split:               ; preds = %58, %Aig_ObjPhaseReal.exit
  %.sink = phi ptr [ %75, %Aig_ObjPhaseReal.exit ], [ %22, %58 ]
  %76 = tail call ptr @Aig_ObjCreateCo(ptr noundef %1, ptr noundef %.sink) #9
  br label %Aig_ObjRepr.exit.thread

Aig_ObjRepr.exit.thread:                          ; preds = %Aig_ObjRepr.exit.thread.sink.split, %5, %38, %36, %Aig_ObjRepr.exit
  ret void
}